target datalayout = "e-m:e-p270:32:32-p271:32:32-p272:64:64-i64:64-i128:128-f80:128-n8:16:32:64-S128"
target triple = "x86_64-pc-linux-gnu"

%struct.slurm_conf_t = type { i64, ptr, i16, ptr, ptr, ptr, ptr, ptr, i16, ptr, ptr, ptr, ptr, ptr, ptr, ptr, i16, ptr, ptr, ptr, ptr, i16, ptr, ptr, ptr, i64, ptr, ptr, ptr, ptr, i16, ptr, ptr, i16, i32, ptr, i32, ptr, i32, i32, ptr, ptr, i64, i64, ptr, i16, i16, ptr, i32, i32, ptr, i32, ptr, i32, i16, i16, i16, ptr, i16, i16, ptr, ptr, i32, i16, i16, ptr, i32, i16, ptr, ptr, ptr, ptr, i16, ptr, ptr, ptr, ptr, i32, ptr, ptr, ptr, ptr, i16, i16, ptr, i32, i32, i32, i16, i16, ptr, ptr, i16, ptr, ptr, i32, i32, i32, i32, i32, i64, i32, i32, i16, ptr, ptr, i32, ptr, ptr, ptr, i16, i32, ptr, ptr, i16, ptr, ptr, i32, i16, ptr, ptr, ptr, ptr, i32, i32, i16, i16, i32, ptr, i16, ptr, i32, i32, i32, i32, i32, i32, ptr, i16, ptr, ptr, i32, i16, ptr, i32, i16, i16, ptr, ptr, ptr, i16, ptr, ptr, ptr, ptr, i16, i16, ptr, i16, ptr, i16, ptr, i16, ptr, i16, ptr, ptr, ptr, ptr, i16, ptr, ptr, ptr, i32, ptr, i32, ptr, ptr, i16, ptr, ptr, i32, i16, ptr, ptr, i16, i16, ptr, i16, ptr, ptr, ptr, i32, ptr, i16, i16, ptr, ptr, ptr, ptr, ptr, ptr, ptr, ptr, i16, i32, i16, ptr, ptr, ptr, ptr, i32, ptr, ptr, ptr, i16, ptr, ptr, ptr, i16, ptr, i16, ptr, i16, i16, ptr }
%union.pthread_mutex_t = type { %struct.__pthread_mutex_s }
%struct.__pthread_mutex_s = type { i32, i32, i32, i32, i32, i16, i16, %struct.__pthread_internal_list }
%struct.__pthread_internal_list = type { ptr, ptr }
%struct.mail_info_t = type { ptr, ptr, ptr }

@slurm_conf = external global %struct.slurm_conf_t, align 8
@agent_thread_cnt = internal global i32 0, align 4
@agent_cnt_mutex = internal global %union.pthread_mutex_t zeroinitializer, align 8
@.str.3 = private unnamed_addr constant [29 x i8] c"%s: pthread_mutex_lock(): %m\00", align 1
@.str.7 = private unnamed_addr constant [31 x i8] c"%s: pthread_mutex_unlock(): %m\00", align 1
@.str.18 = private unnamed_addr constant [27 x i8] c"agent_thread_cnt underflow\00", align 1
@mail_mutex = internal global %union.pthread_mutex_t zeroinitializer, align 8
@mail_thread_cnt = internal global i32 0, align 4
@.str.70 = private unnamed_addr constant [3 x i8] c"-s\00", align 1
@.str.71 = private unnamed_addr constant [46 x i8] c"MailProg returned error, it's output was '%s'\00", align 1
@.str.72 = private unnamed_addr constant [26 x i8] c"MailProg output was '%s'.\00", align 1
@.str.73 = private unnamed_addr constant [38 x i8] c"No output from MailProg, exit code=%d\00", align 1
@__func__._mail_proc = private unnamed_addr constant [11 x i8] c"_mail_proc\00", align 1
@.str.74 = private unnamed_addr constant [26 x i8] c"mail_thread_cnt underflow\00", align 1

; Function Attrs: nounwind uwtable
define internal void @_mail_free(ptr noundef %0) #0 {
  %2 = alloca ptr, align 8
  %3 = alloca ptr, align 8
  store ptr %0, ptr %2, align 8
  call void @llvm.lifetime.start.p0(i64 8, ptr %3) #10
  %4 = load ptr, ptr %2, align 8
  store ptr %4, ptr %3, align 8
  %5 = load ptr, ptr %3, align 8
  %6 = icmp ne ptr %5, null
  br i1 %6, label %7, label %15

7:                                                ; preds = %1
  %8 = load ptr, ptr %3, align 8
  %9 = getelementptr inbounds nuw %struct.mail_info_t, ptr %8, i32 0, i32 0
  call void @slurm_xfree(ptr noundef %9)
  %10 = load ptr, ptr %3, align 8
  %11 = getelementptr inbounds nuw %struct.mail_info_t, ptr %10, i32 0, i32 1
  call void @slurm_xfree(ptr noundef %11)
  %12 = load ptr, ptr %3, align 8
  %13 = getelementptr inbounds nuw %struct.mail_info_t, ptr %12, i32 0, i32 2
  %14 = load ptr, ptr %13, align 8
  call void @env_array_free(ptr noundef %14)
  call void @slurm_xfree(ptr noundef %3)
  br label %15

15:                                               ; preds = %7, %1
  call void @llvm.lifetime.end.p0(i64 8, ptr %3) #10
  ret void
}

; Function Attrs: nounwind uwtable
define internal ptr @_mail_proc(ptr noundef %0) #0 {
  %2 = alloca ptr, align 8
  %3 = alloca ptr, align 8
  %4 = alloca i32, align 4
  %5 = alloca ptr, align 8
  %6 = alloca [5 x ptr], align 16
  %7 = alloca i32, align 4
  %8 = alloca i32, align 4
  %9 = alloca i32, align 4
  %10 = alloca i32, align 4
  store ptr %0, ptr %2, align 8
  call void @llvm.lifetime.start.p0(i64 8, ptr %3) #10
  %11 = load ptr, ptr %2, align 8
  store ptr %11, ptr %3, align 8
  call void @llvm.lifetime.start.p0(i64 4, ptr %4) #10
  call void @llvm.lifetime.start.p0(i64 8, ptr %5) #10
  store ptr null, ptr %5, align 8
  call void @llvm.lifetime.start.p0(i64 40, ptr %6) #10
  %12 = load ptr, ptr getelementptr inbounds nuw (%struct.slurm_conf_t, ptr @slurm_conf, i32 0, i32 94), align 8
  store ptr %12, ptr %6, align 8
  %13 = getelementptr inbounds ptr, ptr %6, i64 1
  store ptr @.str.70, ptr %13, align 8
  %14 = getelementptr inbounds ptr, ptr %6, i64 2
  %15 = load ptr, ptr %3, align 8
  %16 = getelementptr inbounds nuw %struct.mail_info_t, ptr %15, i32 0, i32 1
  %17 = load ptr, ptr %16, align 8
  store ptr %17, ptr %14, align 8
  %18 = getelementptr inbounds ptr, ptr %6, i64 3
  %19 = load ptr, ptr %3, align 8
  %20 = getelementptr inbounds nuw %struct.mail_info_t, ptr %19, i32 0, i32 0
  %21 = load ptr, ptr %20, align 8
  store ptr %21, ptr %18, align 8
  %22 = getelementptr inbounds ptr, ptr %6, i64 4
  store ptr null, ptr %22, align 8
  %23 = load ptr, ptr getelementptr inbounds nuw (%struct.slurm_conf_t, ptr @slurm_conf, i32 0, i32 94), align 8
  %24 = getelementptr inbounds [5 x ptr], ptr %6, i64 0, i64 0
  %25 = load ptr, ptr %3, align 8
  %26 = getelementptr inbounds nuw %struct.mail_info_t, ptr %25, i32 0, i32 2
  %27 = load ptr, ptr %26, align 8
  %28 = call i32 @slurmscriptd_run_mail(ptr noundef %23, i32 noundef 5, ptr noundef %24, ptr noundef %27, i32 noundef 120, ptr noundef %5)
  store i32 %28, ptr %4, align 4
  %29 = load i32, ptr %4, align 4
  %30 = icmp ne i32 %29, 0
  br i1 %30, label %31, label %34

31:                                               ; preds = %1
  %32 = load ptr, ptr %5, align 8
  %33 = call i32 (ptr, ...) @error(ptr noundef @.str.71, ptr noundef %32)
  br label %66

34:                                               ; preds = %1
  %35 = load ptr, ptr %5, align 8
  %36 = icmp ne ptr %35, null
  br i1 %36, label %37, label %53

37:                                               ; preds = %34
  %38 = load ptr, ptr %5, align 8
  %39 = call i64 @strlen(ptr noundef %38) #13
  %40 = icmp ugt i64 %39, 0
  br i1 %40, label %41, label %53

41:                                               ; preds = %37
  br label %42

42:                                               ; preds = %41
  br label %43

43:                                               ; preds = %42
  %44 = call i32 @get_log_level()
  %45 = icmp sge i32 %44, 5
  br i1 %45, label %46, label %48

46:                                               ; preds = %43
  %47 = load ptr, ptr %5, align 8
  call void (i32, ptr, ...) @log_var(i32 noundef 5, ptr noundef @.str.72, ptr noundef %47)
  br label %48

48:                                               ; preds = %46, %43
  br label %49

49:                                               ; preds = %48
  br label %50

50:                                               ; preds = %49
  br label %51

51:                                               ; preds = %50
  br label %52

52:                                               ; preds = %51
  br label %65

53:                                               ; preds = %37, %34
  br label %54

54:                                               ; preds = %53
  br label %55

55:                                               ; preds = %54
  %56 = call i32 @get_log_level()
  %57 = icmp sge i32 %56, 6
  br i1 %57, label %58, label %60

58:                                               ; preds = %55
  %59 = load i32, ptr %4, align 4
  call void (i32, ptr, ...) @log_var(i32 noundef 6, ptr noundef @.str.73, i32 noundef %59)
  br label %60

60:                                               ; preds = %58, %55
  br label %61

61:                                               ; preds = %60
  br label %62

62:                                               ; preds = %61
  br label %63

63:                                               ; preds = %62
  br label %64

64:                                               ; preds = %63
  br label %65

65:                                               ; preds = %64, %52
  br label %66

66:                                               ; preds = %65, %31
  call void @slurm_xfree(ptr noundef %5)
  %67 = load ptr, ptr %3, align 8
  call void @_mail_free(ptr noundef %67)
  br label %68

68:                                               ; preds = %66
  call void @llvm.lifetime.start.p0(i64 4, ptr %7) #10
  %69 = call i32 @pthread_mutex_lock(ptr noundef @agent_cnt_mutex) #10
  store i32 %69, ptr %7, align 4
  %70 = load i32, ptr %7, align 4
  %71 = icmp ne i32 %70, 0
  br i1 %71, label %72, label %75

72:                                               ; preds = %68
  %73 = load i32, ptr %7, align 4
  %74 = call ptr @__errno_location() #11
  store i32 %73, ptr %74, align 4
  call void (ptr, ...) @fatal_abort(ptr noundef @.str.3, ptr noundef @__func__._mail_proc) #12
  unreachable

75:                                               ; preds = %68
  call void @llvm.lifetime.end.p0(i64 4, ptr %7) #10
  br label %76

76:                                               ; preds = %75
  br label %77

77:                                               ; preds = %76
  br label %78

78:                                               ; preds = %77
  call void @llvm.lifetime.start.p0(i64 4, ptr %8) #10
  %79 = call i32 @pthread_mutex_lock(ptr noundef @mail_mutex) #10
  store i32 %79, ptr %8, align 4
  %80 = load i32, ptr %8, align 4
  %81 = icmp ne i32 %80, 0
  br i1 %81, label %82, label %85

82:                                               ; preds = %78
  %83 = load i32, ptr %8, align 4
  %84 = call ptr @__errno_location() #11
  store i32 %83, ptr %84, align 4
  call void (ptr, ...) @fatal_abort(ptr noundef @.str.3, ptr noundef @__func__._mail_proc) #12
  unreachable

85:                                               ; preds = %78
  call void @llvm.lifetime.end.p0(i64 4, ptr %8) #10
  br label %86

86:                                               ; preds = %85
  br label %87

87:                                               ; preds = %86
  %88 = load i32, ptr @agent_thread_cnt, align 4
  %89 = icmp ne i32 %88, 0
  br i1 %89, label %90, label %93

90:                                               ; preds = %87
  %91 = load i32, ptr @agent_thread_cnt, align 4
  %92 = add nsw i32 %91, -1
  store i32 %92, ptr @agent_thread_cnt, align 4
  br label %95

93:                                               ; preds = %87
  %94 = call i32 (ptr, ...) @error(ptr noundef @.str.18)
  br label %95

95:                                               ; preds = %93, %90
  %96 = load i32, ptr @mail_thread_cnt, align 4
  %97 = icmp ne i32 %96, 0
  br i1 %97, label %98, label %101

98:                                               ; preds = %95
  %99 = load i32, ptr @mail_thread_cnt, align 4
  %100 = add nsw i32 %99, -1
  store i32 %100, ptr @mail_thread_cnt, align 4
  br label %103

101:                                              ; preds = %95
  %102 = call i32 (ptr, ...) @error(ptr noundef @.str.74)
  br label %103

103:                                              ; preds = %101, %98
  br label %104

104:                                              ; preds = %103
  call void @llvm.lifetime.start.p0(i64 4, ptr %9) #10
  %105 = call i32 @pthread_mutex_unlock(ptr noundef @mail_mutex) #10
  store i32 %105, ptr %9, align 4
  %106 = load i32, ptr %9, align 4
  %107 = icmp ne i32 %106, 0
  br i1 %107, label %108, label %111

108:                                              ; preds = %104
  %109 = load i32, ptr %9, align 4
  %110 = call ptr @__errno_location() #11
  store i32 %109, ptr %110, align 4
  call void (ptr, ...) @fatal_abort(ptr noundef @.str.7, ptr noundef @__func__._mail_proc) #12
  unreachable

111:                                              ; preds = %104
  call void @llvm.lifetime.end.p0(i64 4, ptr %9) #10
  br label %112

112:                                              ; preds = %111
  br label %113

113:                                              ; preds = %112
  br label %114

114:                                              ; preds = %113
  call void @llvm.lifetime.start.p0(i64 4, ptr %10) #10
  %115 = call i32 @pthread_mutex_unlock(ptr noundef @agent_cnt_mutex) #10
  store i32 %115, ptr %10, align 4
  %116 = load i32, ptr %10, align 4
  %117 = icmp ne i32 %116, 0
  br i1 %117, label %118, label %121

118:                                              ; preds = %114
  %119 = load i32, ptr %10, align 4
  %120 = call ptr @__errno_location() #11
  store i32 %119, ptr %120, align 4
  call void (ptr, ...) @fatal_abort(ptr noundef @.str.7, ptr noundef @__func__._mail_proc) #12
  unreachable

121:                                              ; preds = %114
  call void @llvm.lifetime.end.p0(i64 4, ptr %10) #10
  br label %122

122:                                              ; preds = %121
  br label %123

123:                                              ; preds = %122
  call void @llvm.lifetime.end.p0(i64 40, ptr %6) #10
  call void @llvm.lifetime.end.p0(i64 8, ptr %5) #10
  call void @llvm.lifetime.end.p0(i64 4, ptr %4) #10
  call void @llvm.lifetime.end.p0(i64 8, ptr %3) #10
  ret ptr null
}