; Function Attrs: nounwind uwtable
define internal noalias noundef ptr @_mail_proc(ptr noundef %0) #0 {
  %2 = alloca ptr, align 8
  %3 = alloca ptr, align 8
  %4 = alloca [5 x ptr], align 16
  call void @llvm.lifetime.start.p0(i64 8, ptr nonnull %3) #14
  store ptr null, ptr %3, align 8
  call void @llvm.lifetime.start.p0(i64 40, ptr nonnull %4) #14
  %5 = load ptr, ptr getelementptr inbounds nuw (i8, ptr @slurm_conf, i64 640), align 8
  store ptr %5, ptr %4, align 16
  %6 = getelementptr inbounds nuw i8, ptr %4, i64 8
  store ptr @.str.70, ptr %6, align 8
  %7 = getelementptr inbounds nuw i8, ptr %4, i64 16
  %8 = getelementptr inbounds nuw i8, ptr %0, i64 8
  %9 = load ptr, ptr %8, align 8
  store ptr %9, ptr %7, align 16
  %10 = getelementptr inbounds nuw i8, ptr %4, i64 24
  %11 = load ptr, ptr %0, align 8
  store ptr %11, ptr %10, align 8
  %12 = getelementptr inbounds nuw i8, ptr %4, i64 32
  store ptr null, ptr %12, align 16
  %13 = getelementptr inbounds nuw i8, ptr %0, i64 16
  %14 = load ptr, ptr %13, align 8
  %15 = call i32 @slurmscriptd_run_mail(ptr noundef %5, i32 noundef 5, ptr noundef nonnull %4, ptr noundef %14, i32 noundef 120, ptr noundef nonnull %3) #14
  %.not = icmp eq i32 %15, 0
  %16 = load ptr, ptr %3, align 8
  br i1 %.not, label %19, label %17

17:                                               ; preds = %1
  %18 = call i32 (ptr, ...) @error(ptr noundef nonnull @.str.71, ptr noundef %16) #14
  br label %_mail_free.exit

19:                                               ; preds = %1
  %.not21 = icmp eq ptr %16, null
  br i1 %.not21, label %26, label %20

20:                                               ; preds = %19
  %char0 = load i8, ptr %16, align 1
  %.not22 = icmp eq i8 %char0, 0
  br i1 %.not22, label %26, label %21

21:                                               ; preds = %20
  %22 = call i32 @get_log_level() #14
  %23 = icmp sgt i32 %22, 4
  br i1 %23, label %24, label %_mail_free.exit

24:                                               ; preds = %21
  %25 = load ptr, ptr %3, align 8
  call void (i32, ptr, ...) @log_var(i32 noundef 5, ptr noundef nonnull @.str.72, ptr noundef %25) #14
  br label %_mail_free.exit

26:                                               ; preds = %20, %19
  %27 = call i32 @get_log_level() #14
  %28 = icmp sgt i32 %27, 5
  br i1 %28, label %29, label %_mail_free.exit

29:                                               ; preds = %26
  call void (i32, ptr, ...) @log_var(i32 noundef 6, ptr noundef nonnull @.str.73, i32 noundef 0) #14
  br label %_mail_free.exit

_mail_free.exit:                                  ; preds = %24, %21, %29, %26, %17
  call void @slurm_xfree(ptr noundef nonnull %3) #14
  call void @llvm.lifetime.start.p0(i64 8, ptr nonnull %2) #14
  store ptr %0, ptr %2, align 8
  call void @slurm_xfree(ptr noundef nonnull %0) #14
  call void @slurm_xfree(ptr noundef nonnull %8) #14
  %30 = load ptr, ptr %13, align 8
  call void @env_array_free(ptr noundef %30) #14
  call void @slurm_xfree(ptr noundef nonnull %2) #14
  call void @llvm.lifetime.end.p0(i64 8, ptr nonnull %2) #14
  %31 = call i32 @pthread_mutex_lock(ptr noundef nonnull @agent_cnt_mutex) #14
  %.not23 = icmp eq i32 %31, 0
  br i1 %.not23, label %34, label %32

32:                                               ; preds = %_mail_free.exit
  %33 = tail call ptr @__errno_location() #15
  store i32 %31, ptr %33, align 4
  call void (ptr, ...) @fatal_abort(ptr noundef nonnull @.str.3, ptr noundef nonnull @__func__._mail_proc) #16
  unreachable

34:                                               ; preds = %_mail_free.exit
  %35 = call i32 @pthread_mutex_lock(ptr noundef nonnull @mail_mutex) #14
  %.not24 = icmp eq i32 %35, 0
  br i1 %.not24, label %38, label %36

36:                                               ; preds = %34
  %37 = tail call ptr @__errno_location() #15
  store i32 %35, ptr %37, align 4
  call void (ptr, ...) @fatal_abort(ptr noundef nonnull @.str.3, ptr noundef nonnull @__func__._mail_proc) #16
  unreachable

38:                                               ; preds = %34
  %39 = load i32, ptr @agent_thread_cnt, align 4
  %.not25 = icmp eq i32 %39, 0
  br i1 %.not25, label %42, label %40

40:                                               ; preds = %38
  %41 = add nsw i32 %39, -1
  store i32 %41, ptr @agent_thread_cnt, align 4
  br label %44

42:                                               ; preds = %38
  %43 = call i32 (ptr, ...) @error(ptr noundef nonnull @.str.18) #14
  br label %44

44:                                               ; preds = %42, %40
  %45 = load i32, ptr @mail_thread_cnt, align 4
  %.not26 = icmp eq i32 %45, 0
  br i1 %.not26, label %48, label %46

46:                                               ; preds = %44
  %47 = add nsw i32 %45, -1
  store i32 %47, ptr @mail_thread_cnt, align 4
  br label %50

48:                                               ; preds = %44
  %49 = call i32 (ptr, ...) @error(ptr noundef nonnull @.str.74) #14
  br label %50

50:                                               ; preds = %46, %48
  %51 = call i32 @pthread_mutex_unlock(ptr noundef nonnull @mail_mutex) #14
  %.not27 = icmp eq i32 %51, 0
  br i1 %.not27, label %54, label %52

52:                                               ; preds = %50
  %53 = tail call ptr @__errno_location() #15
  store i32 %51, ptr %53, align 4
  call void (ptr, ...) @fatal_abort(ptr noundef nonnull @.str.7, ptr noundef nonnull @__func__._mail_proc) #16
  unreachable

54:                                               ; preds = %50
  %55 = call i32 @pthread_mutex_unlock(ptr noundef nonnull @agent_cnt_mutex) #14
  %.not28 = icmp eq i32 %55, 0
  br i1 %.not28, label %58, label %56

56:                                               ; preds = %54
  %57 = tail call ptr @__errno_location() #15
  store i32 %55, ptr %57, align 4
  call void (ptr, ...) @fatal_abort(ptr noundef nonnull @.str.7, ptr noundef nonnull @__func__._mail_proc) #16
  unreachable

58:                                               ; preds = %54
  call void @llvm.lifetime.end.p0(i64 40, ptr nonnull %4) #14
  call void @llvm.lifetime.end.p0(i64 8, ptr nonnull %3) #14
  ret ptr null
}